; Function Attrs: mustprogress uwtable
define dso_local noundef i32 @_ZN3net22QuicClientPromisedInfo19HandleClientRequestERKNS_15SpdyHeaderBlockEPNS_26QuicClientPushPromiseIndex8DelegateE(ptr noundef nonnull align 8 dereferenceable(96) %this, ptr noundef nonnull align 8 dereferenceable(88) %request_headers, ptr noundef %delegate) unnamed_addr #3 align 2 personality ptr @__gxx_personality_v0 {
entry:
  %session_ = getelementptr inbounds i8, ptr %this, i64 8
  %0 = load ptr, ptr %session_, align 8
  %id_ = getelementptr inbounds i8, ptr %this, i64 16
  %1 = load i32, ptr %id_, align 8
  %call = tail call noundef zeroext i1 @_ZN3net11QuicSession14IsClosedStreamEj(ptr noundef nonnull align 8 dereferenceable(2044) %0, i32 noundef %1)
  br i1 %call, label %if.then, label %if.end

if.then:                                          ; preds = %entry
  %2 = load ptr, ptr %session_, align 8
  %vtable = load ptr, ptr %2, align 8
  %vfn = getelementptr inbounds i8, ptr %vtable, i64 440
  %3 = load ptr, ptr %vfn, align 8
  tail call void %3(ptr noundef nonnull align 8 dereferenceable(2140) %2, ptr noundef nonnull %this)
  br label %return

if.end:                                           ; preds = %entry
  %client_request_delegate_ = getelementptr inbounds i8, ptr %this, i64 80
  store ptr %delegate, ptr %client_request_delegate_, align 8
  %call3 = tail call noalias noundef nonnull dereferenceable(88) ptr @_Znwm(i64 noundef 88) #10
  invoke void @_ZNK3net15SpdyHeaderBlock5CloneEv(ptr nonnull sret(%"class.net::SpdyHeaderBlock") align 8 %call3, ptr noundef nonnull align 8 dereferenceable(88) %request_headers)
          to label %invoke.cont unwind label %lpad

invoke.cont:                                      ; preds = %if.end
  %client_request_headers_ = getelementptr inbounds i8, ptr %this, i64 72
  %4 = load ptr, ptr %client_request_headers_, align 8
  store ptr %call3, ptr %client_request_headers_, align 8
  %tobool.not.i.i = icmp eq ptr %4, null
  br i1 %tobool.not.i.i, label %_ZNSt10unique_ptrIN3net15SpdyHeaderBlockESt14default_deleteIS1_EE5resetEPS1_.exit, label %_ZNKSt14default_deleteIN3net15SpdyHeaderBlockEEclEPS1_.exit.i.i

_ZNKSt14default_deleteIN3net15SpdyHeaderBlockEEclEPS1_.exit.i.i: ; preds = %invoke.cont
  tail call void @_ZN3net15SpdyHeaderBlockD1Ev(ptr noundef nonnull align 8 dereferenceable(88) %4) #8
  tail call void @_ZdlPv(ptr noundef nonnull %4) #9
  br label %_ZNSt10unique_ptrIN3net15SpdyHeaderBlockESt14default_deleteIS1_EE5resetEPS1_.exit

_ZNSt10unique_ptrIN3net15SpdyHeaderBlockESt14default_deleteIS1_EE5resetEPS1_.exit: ; preds = %invoke.cont, %_ZNKSt14default_deleteIN3net15SpdyHeaderBlockEEclEPS1_.exit.i.i
  %response_headers_ = getelementptr inbounds i8, ptr %this, i64 64
  %5 = load ptr, ptr %response_headers_, align 8
  %cmp.i.not = icmp eq ptr %5, null
  br i1 %cmp.i.not, label %return, label %if.end6

lpad:                                             ; preds = %if.end
  %6 = landingpad { ptr, i32 }
          cleanup
  tail call void @_ZdlPv(ptr noundef nonnull %call3) #9
  resume { ptr, i32 } %6

if.end6:                                          ; preds = %_ZNSt10unique_ptrIN3net15SpdyHeaderBlockESt14default_deleteIS1_EE5resetEPS1_.exit
  %call7 = tail call noundef i32 @_ZN3net22QuicClientPromisedInfo15FinalValidationEv(ptr noundef nonnull align 8 dereferenceable(96) %this), !range !5
  br label %return

return:                                           ; preds = %_ZNSt10unique_ptrIN3net15SpdyHeaderBlockESt14default_deleteIS1_EE5resetEPS1_.exit, %if.end6, %if.then
  %retval.0 = phi i32 [ 1, %if.then ], [ %call7, %if.end6 ], [ 2, %_ZNSt10unique_ptrIN3net15SpdyHeaderBlockESt14default_deleteIS1_EE5resetEPS1_.exit ]
  ret i32 %retval.0
}